target datalayout = "e-m:e-p270:32:32-p271:32:32-p272:64:64-i64:64-i128:128-f80:128-n8:16:32:64-S128"
target triple = "x86_64-pc-linux-gnu"

%struct.Ivy_Obj_t_ = type { i32, i32, i32, i32, ptr, ptr, ptr, ptr, ptr, ptr, ptr, ptr }
%struct.Ivy_FraigMan_t_ = type { ptr, i64, i64, ptr, ptr, i32, ptr, ptr, i32, ptr, ptr, %struct.Ivy_FraigList_t_, %struct.Ivy_FraigList_t_, i32, ptr, i32, ptr, ptr, i32, i32, i32, i32, i32, i32, i32, i32, i32, i32, i32, i32, i32, i64, i64, i64, i64, i64, i64, i64, i64, i64, i64 }
%struct.Ivy_FraigList_t_ = type { ptr, ptr, i32 }
%struct.Ivy_FraigSim_t_ = type { i32, ptr, ptr, ptr, [0 x i32] }

; Function Attrs: inlinehint nounwind uwtable
define internal ptr @Ivy_ObjSim(ptr noundef %0) #4 {
  %2 = alloca ptr, align 8
  store ptr %0, ptr %2, align 8, !tbaa !72
  %3 = load ptr, ptr %2, align 8, !tbaa !72
  %4 = getelementptr inbounds nuw %struct.Ivy_Obj_t_, ptr %3, i32 0, i32 6
  %5 = load ptr, ptr %4, align 8, !tbaa !126
  ret ptr %5
}

; Function Attrs: nounwind uwtable
define i32 @Ivy_NodeHash(ptr noundef %0, ptr noundef %1) #0 {
  %3 = alloca ptr, align 8
  %4 = alloca ptr, align 8
  %5 = alloca ptr, align 8
  %6 = alloca i32, align 4
  %7 = alloca i32, align 4
  store ptr %0, ptr %3, align 8, !tbaa !60
  store ptr %1, ptr %4, align 8, !tbaa !72
  call void @llvm.lifetime.start.p0(i64 8, ptr %5) #12
  call void @llvm.lifetime.start.p0(i64 4, ptr %6) #12
  call void @llvm.lifetime.start.p0(i64 4, ptr %7) #12
  store i32 0, ptr %6, align 4, !tbaa !44
  %8 = load ptr, ptr %4, align 8, !tbaa !72
  %9 = call ptr @Ivy_ObjSim(ptr noundef %8)
  store ptr %9, ptr %5, align 8, !tbaa !102
  store i32 0, ptr %7, align 4, !tbaa !44
  br label %10

10:                                               ; preds = %30, %2
  %11 = load i32, ptr %7, align 4, !tbaa !44
  %12 = load ptr, ptr %3, align 8, !tbaa !60
  %13 = getelementptr inbounds nuw %struct.Ivy_FraigMan_t_, ptr %12, i32 0, i32 5
  %14 = load i32, ptr %13, align 8, !tbaa !100
  %15 = icmp slt i32 %11, %14
  br i1 %15, label %16, label %33

16:                                               ; preds = %10
  %17 = load ptr, ptr %5, align 8, !tbaa !102
  %18 = getelementptr inbounds nuw %struct.Ivy_FraigSim_t_, ptr %17, i32 0, i32 4
  %19 = load i32, ptr %7, align 4, !tbaa !44
  %20 = sext i32 %19 to i64
  %21 = getelementptr inbounds [0 x i32], ptr %18, i64 0, i64 %20
  %22 = load i32, ptr %21, align 4, !tbaa !44
  %23 = load i32, ptr %7, align 4, !tbaa !44
  %24 = sext i32 %23 to i64
  %25 = getelementptr inbounds [128 x i32], ptr @Ivy_NodeHash.s_FPrimes, i64 0, i64 %24
  %26 = load i32, ptr %25, align 4, !tbaa !44
  %27 = mul i32 %22, %26
  %28 = load i32, ptr %6, align 4, !tbaa !44
  %29 = xor i32 %28, %27
  store i32 %29, ptr %6, align 4, !tbaa !44
  br label %30

30:                                               ; preds = %16
  %31 = load i32, ptr %7, align 4, !tbaa !44
  %32 = add nsw i32 %31, 1
  store i32 %32, ptr %7, align 4, !tbaa !44
  br label %10, !llvm.loop !163

33:                                               ; preds = %10
  %34 = load i32, ptr %6, align 4, !tbaa !44
  call void @llvm.lifetime.end.p0(i64 4, ptr %7) #12
  call void @llvm.lifetime.end.p0(i64 4, ptr %6) #12
  call void @llvm.lifetime.end.p0(i64 8, ptr %5) #12
  ret i32 %34
}