; Function Attrs: nofree norecurse nosync nounwind memory(read, inaccessiblemem: none) uwtable
define i32 @Ivy_NodeHash(ptr noundef readonly captures(none) %0, ptr noundef readonly captures(none) %1) local_unnamed_addr #10 {
  %3 = getelementptr inbounds nuw i8, ptr %0, i64 40
  %4 = load i32, ptr %3, align 8, !tbaa !96
  %5 = icmp sgt i32 %4, 0
  br i1 %5, label %.lr.ph, label %._crit_edge

.lr.ph:                                           ; preds = %2
  %6 = getelementptr i8, ptr %1, i64 32
  %.val = load ptr, ptr %6, align 8, !tbaa !103
  %7 = getelementptr inbounds nuw i8, ptr %.val, i64 32
  %wide.trip.count = zext nneg i32 %4 to i64
  br label %8

8:                                                ; preds = %.lr.ph, %8
  %indvars.iv = phi i64 [ 0, %.lr.ph ], [ %indvars.iv.next, %8 ]
  %.089 = phi i32 [ 0, %.lr.ph ], [ %14, %8 ]
  %9 = getelementptr inbounds nuw [0 x i32], ptr %7, i64 0, i64 %indvars.iv
  %10 = load i32, ptr %9, align 4, !tbaa !38
  %11 = getelementptr inbounds nuw [128 x i32], ptr @Ivy_NodeHash.s_FPrimes, i64 0, i64 %indvars.iv
  %12 = load i32, ptr %11, align 4, !tbaa !38
  %13 = mul i32 %12, %10
  %14 = xor i32 %13, %.089
  %indvars.iv.next = add nuw nsw i64 %indvars.iv, 1
  %exitcond.not = icmp eq i64 %indvars.iv.next, %wide.trip.count
  br i1 %exitcond.not, label %._crit_edge, label %8, !llvm.loop !176

._crit_edge:                                      ; preds = %8, %2
  %.08.lcssa = phi i32 [ 0, %2 ], [ %14, %8 ]
  ret i32 %.08.lcssa
}